; Function Attrs: nounwind uwtable
define ptr @l_Lean_Meta_traverseLetWithPos_visit___rarg___lambda__4(ptr noundef %0, ptr noundef %1, ptr noundef %2, ptr noundef %3, ptr noundef %4, ptr noundef %5, ptr noundef %6, ptr noundef %7, ptr noundef %8, ptr noundef %9, ptr noundef %10) local_unnamed_addr #0 {
  %12 = tail call ptr @l_Lean_SubExpr_Pos_push(ptr noundef %0, ptr noundef nonnull inttoptr (i64 3 to ptr)) #3
  %13 = tail call ptr @lean_expr_instantiate_rev(ptr noundef %1, ptr noundef %2) #3
  %14 = ptrtoint ptr %3 to i64
  %15 = and i64 %14, 1
  %.not = icmp eq i64 %15, 0
  br i1 %.not, label %16, label %lean_inc.exit

16:                                               ; preds = %11
  %.val.i = load i32, ptr %3, align 4, !tbaa !4
  %17 = icmp sgt i32 %.val.i, 0
  br i1 %17, label %18, label %20, !prof !13

18:                                               ; preds = %16
  %19 = add nuw i32 %.val.i, 1
  store i32 %19, ptr %3, align 4, !tbaa !4
  br label %lean_inc.exit

20:                                               ; preds = %16
  %.not.i = icmp eq i32 %.val.i, 0
  br i1 %.not.i, label %lean_inc.exit, label %21

21:                                               ; preds = %20
  tail call void @lean_inc_ref_cold(ptr noundef nonnull %3) #3
  br label %lean_inc.exit

lean_inc.exit:                                    ; preds = %21, %20, %18, %11
  %22 = tail call ptr @lean_apply_2(ptr noundef %3, ptr noundef %12, ptr noundef %13) #3
  tail call void @lean_inc_heartbeat() #3
  %23 = tail call noalias ptr @mi_malloc_small(i64 noundef 96) #3
  %24 = icmp eq ptr %23, null
  br i1 %24, label %25, label %lean_alloc_closure.exit

25:                                               ; preds = %lean_inc.exit
  tail call void @lean_internal_panic_out_of_memory() #4
  unreachable

lean_alloc_closure.exit:                          ; preds = %lean_inc.exit
  %26 = getelementptr inbounds nuw i8, ptr %23, i64 4
  store i32 1, ptr %23, align 4, !tbaa !4
  store i32 -184549280, ptr %26, align 4
  %27 = getelementptr inbounds nuw i8, ptr %23, i64 8
  store ptr @l_Lean_Meta_traverseLetWithPos_visit___rarg___lambda__3, ptr %27, align 8, !tbaa !9
  %28 = getelementptr inbounds nuw i8, ptr %23, i64 16
  store i16 10, ptr %28, align 8, !tbaa !11
  %29 = getelementptr inbounds nuw i8, ptr %23, i64 18
  store i16 9, ptr %29, align 2, !tbaa !11
  %30 = getelementptr inbounds nuw i8, ptr %23, i64 24
  store ptr %2, ptr %30, align 8, !tbaa !9
  %31 = getelementptr inbounds nuw i8, ptr %23, i64 32
  store ptr %0, ptr %31, align 8, !tbaa !9
  %32 = getelementptr inbounds nuw i8, ptr %23, i64 40
  store ptr %4, ptr %32, align 8, !tbaa !9
  %33 = getelementptr inbounds nuw i8, ptr %23, i64 48
  store ptr %5, ptr %33, align 8, !tbaa !9
  %34 = getelementptr inbounds nuw i8, ptr %23, i64 56
  store ptr %6, ptr %34, align 8, !tbaa !9
  %35 = getelementptr inbounds nuw i8, ptr %23, i64 64
  store ptr %3, ptr %35, align 8, !tbaa !9
  %36 = getelementptr inbounds nuw i8, ptr %23, i64 72
  store ptr %7, ptr %36, align 8, !tbaa !9
  %37 = getelementptr inbounds nuw i8, ptr %23, i64 80
  store ptr %8, ptr %37, align 8, !tbaa !9
  %38 = getelementptr inbounds nuw i8, ptr %23, i64 88
  store ptr %10, ptr %38, align 8, !tbaa !9
  %39 = tail call ptr @lean_apply_4(ptr noundef %9, ptr noundef nonnull inttoptr (i64 1 to ptr), ptr noundef nonnull inttoptr (i64 1 to ptr), ptr noundef %22, ptr noundef nonnull %23) #3
  ret ptr %39
}